target datalayout = "e-m:e-p270:32:32-p271:32:32-p272:64:64-i64:64-i128:128-f80:128-n8:16:32:64-S128"
target triple = "x86_64-pc-linux-gnu"

%struct.SurfaceDataRasInfo = type { %struct.SurfaceDataBounds, ptr, i32, i32, i32, i32, ptr, ptr, ptr, ptr, ptr, ptr, i32, %union.anon.0 }
%struct.SurfaceDataBounds = type { i32, i32, i32, i32 }
%union.anon.0 = type { ptr, [56 x i8] }
%struct.ImageRef = type { ptr, ptr, i32, i32, i32, i32, i32, i32 }

; Function Attrs: nounwind uwtable
define hidden void @Any4ByteDrawGlyphList(ptr noundef %0, ptr noundef %1, i32 noundef %2, i32 noundef %3, i32 noundef %4, i32 noundef %5, i32 noundef %6, i32 noundef %7, i32 noundef %8, ptr noundef %9, ptr noundef %10) #0 {
  %12 = alloca ptr, align 8
  %13 = alloca ptr, align 8
  %14 = alloca i32, align 4
  %15 = alloca i32, align 4
  %16 = alloca i32, align 4
  %17 = alloca i32, align 4
  %18 = alloca i32, align 4
  %19 = alloca i32, align 4
  %20 = alloca i32, align 4
  %21 = alloca ptr, align 8
  %22 = alloca ptr, align 8
  %23 = alloca i32, align 4
  %24 = alloca i32, align 4
  %25 = alloca i8, align 1
  %26 = alloca i8, align 1
  %27 = alloca i8, align 1
  %28 = alloca i8, align 1
  %29 = alloca ptr, align 8
  %30 = alloca ptr, align 8
  %31 = alloca i32, align 4
  %32 = alloca i32, align 4
  %33 = alloca i32, align 4
  %34 = alloca i32, align 4
  %35 = alloca i32, align 4
  %36 = alloca i32, align 4
  %37 = alloca i32, align 4
  %38 = alloca i32, align 4
  store ptr %0, ptr %12, align 8
  store ptr %1, ptr %13, align 8
  store i32 %2, ptr %14, align 4
  store i32 %3, ptr %15, align 4
  store i32 %4, ptr %16, align 4
  store i32 %5, ptr %17, align 4
  store i32 %6, ptr %18, align 4
  store i32 %7, ptr %19, align 4
  store i32 %8, ptr %20, align 4
  store ptr %9, ptr %21, align 8
  store ptr %10, ptr %22, align 8
  %39 = load ptr, ptr %12, align 8
  %40 = getelementptr inbounds %struct.SurfaceDataRasInfo, ptr %39, i32 0, i32 4
  %41 = load i32, ptr %40, align 8
  store i32 %41, ptr %24, align 4
  br label %42

42:                                               ; preds = %11
  %43 = load i32, ptr %15, align 4
  %44 = trunc i32 %43 to i8
  store i8 %44, ptr %25, align 1
  %45 = load i32, ptr %15, align 4
  %46 = ashr i32 %45, 8
  %47 = trunc i32 %46 to i8
  store i8 %47, ptr %26, align 1
  %48 = load i32, ptr %15, align 4
  %49 = ashr i32 %48, 16
  %50 = trunc i32 %49 to i8
  store i8 %50, ptr %27, align 1
  %51 = load i32, ptr %15, align 4
  %52 = ashr i32 %51, 24
  %53 = trunc i32 %52 to i8
  store i8 %53, ptr %28, align 1
  br label %54

54:                                               ; preds = %42
  store i32 0, ptr %23, align 4
  br label %55

55:                                               ; preds = %236, %54
  %56 = load i32, ptr %23, align 4
  %57 = load i32, ptr %14, align 4
  %58 = icmp slt i32 %56, %57
  br i1 %58, label %59, label %239

59:                                               ; preds = %55
  %60 = load ptr, ptr %13, align 8
  %61 = load i32, ptr %23, align 4
  %62 = sext i32 %61 to i64
  %63 = getelementptr inbounds %struct.ImageRef, ptr %60, i64 %62
  %64 = getelementptr inbounds %struct.ImageRef, ptr %63, i32 0, i32 1
  %65 = load ptr, ptr %64, align 8
  store ptr %65, ptr %30, align 8
  %66 = load ptr, ptr %30, align 8
  %67 = icmp ne ptr %66, null
  br i1 %67, label %69, label %68

68:                                               ; preds = %59
  br label %236

69:                                               ; preds = %59
  %70 = load ptr, ptr %13, align 8
  %71 = load i32, ptr %23, align 4
  %72 = sext i32 %71 to i64
  %73 = getelementptr inbounds %struct.ImageRef, ptr %70, i64 %72
  %74 = getelementptr inbounds %struct.ImageRef, ptr %73, i32 0, i32 2
  %75 = load i32, ptr %74, align 8
  store i32 %75, ptr %31, align 4
  %76 = load ptr, ptr %13, align 8
  %77 = load i32, ptr %23, align 4
  %78 = sext i32 %77 to i64
  %79 = getelementptr inbounds %struct.ImageRef, ptr %76, i64 %78
  %80 = getelementptr inbounds %struct.ImageRef, ptr %79, i32 0, i32 6
  %81 = load i32, ptr %80, align 8
  store i32 %81, ptr %32, align 4
  %82 = load ptr, ptr %13, align 8
  %83 = load i32, ptr %23, align 4
  %84 = sext i32 %83 to i64
  %85 = getelementptr inbounds %struct.ImageRef, ptr %82, i64 %84
  %86 = getelementptr inbounds %struct.ImageRef, ptr %85, i32 0, i32 7
  %87 = load i32, ptr %86, align 4
  store i32 %87, ptr %33, align 4
  %88 = load ptr, ptr %13, align 8
  %89 = load i32, ptr %23, align 4
  %90 = sext i32 %89 to i64
  %91 = getelementptr inbounds %struct.ImageRef, ptr %88, i64 %90
  %92 = getelementptr inbounds %struct.ImageRef, ptr %91, i32 0, i32 4
  %93 = load i32, ptr %92, align 8
  store i32 %93, ptr %34, align 4
  %94 = load ptr, ptr %13, align 8
  %95 = load i32, ptr %23, align 4
  %96 = sext i32 %95 to i64
  %97 = getelementptr inbounds %struct.ImageRef, ptr %94, i64 %96
  %98 = getelementptr inbounds %struct.ImageRef, ptr %97, i32 0, i32 5
  %99 = load i32, ptr %98, align 4
  store i32 %99, ptr %35, align 4
  %100 = load i32, ptr %32, align 4
  %101 = load i32, ptr %34, align 4
  %102 = add nsw i32 %100, %101
  store i32 %102, ptr %36, align 4
  %103 = load i32, ptr %33, align 4
  %104 = load i32, ptr %35, align 4
  %105 = add nsw i32 %103, %104
  store i32 %105, ptr %37, align 4
  %106 = load i32, ptr %32, align 4
  %107 = load i32, ptr %17, align 4
  %108 = icmp slt i32 %106, %107
  br i1 %108, label %109, label %118

109:                                              ; preds = %69
  %110 = load i32, ptr %17, align 4
  %111 = load i32, ptr %32, align 4
  %112 = sub nsw i32 %110, %111
  %113 = mul nsw i32 %112, 1
  %114 = load ptr, ptr %30, align 8
  %115 = sext i32 %113 to i64
  %116 = getelementptr inbounds i8, ptr %114, i64 %115
  store ptr %116, ptr %30, align 8
  %117 = load i32, ptr %17, align 4
  store i32 %117, ptr %32, align 4
  br label %118

118:                                              ; preds = %109, %69
  %119 = load i32, ptr %33, align 4
  %120 = load i32, ptr %18, align 4
  %121 = icmp slt i32 %119, %120
  br i1 %121, label %122, label %132

122:                                              ; preds = %118
  %123 = load i32, ptr %18, align 4
  %124 = load i32, ptr %33, align 4
  %125 = sub nsw i32 %123, %124
  %126 = load i32, ptr %31, align 4
  %127 = mul nsw i32 %125, %126
  %128 = load ptr, ptr %30, align 8
  %129 = sext i32 %127 to i64
  %130 = getelementptr inbounds i8, ptr %128, i64 %129
  store ptr %130, ptr %30, align 8
  %131 = load i32, ptr %18, align 4
  store i32 %131, ptr %33, align 4
  br label %132

132:                                              ; preds = %122, %118
  %133 = load i32, ptr %36, align 4
  %134 = load i32, ptr %19, align 4
  %135 = icmp sgt i32 %133, %134
  br i1 %135, label %136, label %138

136:                                              ; preds = %132
  %137 = load i32, ptr %19, align 4
  store i32 %137, ptr %36, align 4
  br label %138

138:                                              ; preds = %136, %132
  %139 = load i32, ptr %37, align 4
  %140 = load i32, ptr %20, align 4
  %141 = icmp sgt i32 %139, %140
  br i1 %141, label %142, label %144

142:                                              ; preds = %138
  %143 = load i32, ptr %20, align 4
  store i32 %143, ptr %37, align 4
  br label %144

144:                                              ; preds = %142, %138
  %145 = load i32, ptr %36, align 4
  %146 = load i32, ptr %32, align 4
  %147 = icmp sle i32 %145, %146
  br i1 %147, label %152, label %148

148:                                              ; preds = %144
  %149 = load i32, ptr %37, align 4
  %150 = load i32, ptr %33, align 4
  %151 = icmp sle i32 %149, %150
  br i1 %151, label %152, label %153

152:                                              ; preds = %148, %144
  br label %236

153:                                              ; preds = %148
  %154 = load i32, ptr %36, align 4
  %155 = load i32, ptr %32, align 4
  %156 = sub nsw i32 %154, %155
  store i32 %156, ptr %34, align 4
  %157 = load i32, ptr %37, align 4
  %158 = load i32, ptr %33, align 4
  %159 = sub nsw i32 %157, %158
  store i32 %159, ptr %35, align 4
  %160 = load ptr, ptr %12, align 8
  %161 = getelementptr inbounds %struct.SurfaceDataRasInfo, ptr %160, i32 0, i32 1
  %162 = load ptr, ptr %161, align 8
  %163 = ptrtoint ptr %162 to i64
  %164 = load i32, ptr %33, align 4
  %165 = sext i32 %164 to i64
  %166 = load i32, ptr %24, align 4
  %167 = sext i32 %166 to i64
  %168 = mul nsw i64 %165, %167
  %169 = load i32, ptr %32, align 4
  %170 = sext i32 %169 to i64
  %171 = mul nsw i64 %170, 4
  %172 = add nsw i64 %168, %171
  %173 = add nsw i64 %163, %172
  %174 = inttoptr i64 %173 to ptr
  store ptr %174, ptr %29, align 8
  br label %175

175:                                              ; preds = %231, %153
  store i32 0, ptr %38, align 4
  br label %176

176:                                              ; preds = %215, %175
  %177 = load ptr, ptr %30, align 8
  %178 = load i32, ptr %38, align 4
  %179 = sext i32 %178 to i64
  %180 = getelementptr inbounds i8, ptr %177, i64 %179
  %181 = load i8, ptr %180, align 1
  %182 = icmp ne i8 %181, 0
  br i1 %182, label %183, label %214

183:                                              ; preds = %176
  br label %184

184:                                              ; preds = %183
  %185 = load i8, ptr %25, align 1
  %186 = load ptr, ptr %29, align 8
  %187 = load i32, ptr %38, align 4
  %188 = mul nsw i32 4, %187
  %189 = add nsw i32 %188, 0
  %190 = sext i32 %189 to i64
  %191 = getelementptr inbounds i8, ptr %186, i64 %190
  store i8 %185, ptr %191, align 1
  %192 = load i8, ptr %26, align 1
  %193 = load ptr, ptr %29, align 8
  %194 = load i32, ptr %38, align 4
  %195 = mul nsw i32 4, %194
  %196 = add nsw i32 %195, 1
  %197 = sext i32 %196 to i64
  %198 = getelementptr inbounds i8, ptr %193, i64 %197
  store i8 %192, ptr %198, align 1
  %199 = load i8, ptr %27, align 1
  %200 = load ptr, ptr %29, align 8
  %201 = load i32, ptr %38, align 4
  %202 = mul nsw i32 4, %201
  %203 = add nsw i32 %202, 2
  %204 = sext i32 %203 to i64
  %205 = getelementptr inbounds i8, ptr %200, i64 %204
  store i8 %199, ptr %205, align 1
  %206 = load i8, ptr %28, align 1
  %207 = load ptr, ptr %29, align 8
  %208 = load i32, ptr %38, align 4
  %209 = mul nsw i32 4, %208
  %210 = add nsw i32 %209, 3
  %211 = sext i32 %210 to i64
  %212 = getelementptr inbounds i8, ptr %207, i64 %211
  store i8 %206, ptr %212, align 1
  br label %213

213:                                              ; preds = %184
  br label %214

214:                                              ; preds = %213, %176
  br label %215

215:                                              ; preds = %214
  %216 = load i32, ptr %38, align 4
  %217 = add nsw i32 %216, 1
  store i32 %217, ptr %38, align 4
  %218 = load i32, ptr %34, align 4
  %219 = icmp slt i32 %217, %218
  br i1 %219, label %176, label %220, !llvm.loop !23

220:                                              ; preds = %215
  %221 = load ptr, ptr %29, align 8
  %222 = ptrtoint ptr %221 to i64
  %223 = load i32, ptr %24, align 4
  %224 = sext i32 %223 to i64
  %225 = add nsw i64 %222, %224
  %226 = inttoptr i64 %225 to ptr
  store ptr %226, ptr %29, align 8
  %227 = load i32, ptr %31, align 4
  %228 = load ptr, ptr %30, align 8
  %229 = sext i32 %227 to i64
  %230 = getelementptr inbounds i8, ptr %228, i64 %229
  store ptr %230, ptr %30, align 8
  br label %231

231:                                              ; preds = %220
  %232 = load i32, ptr %35, align 4
  %233 = add nsw i32 %232, -1
  store i32 %233, ptr %35, align 4
  %234 = icmp sgt i32 %233, 0
  br i1 %234, label %175, label %235, !llvm.loop !24

235:                                              ; preds = %231
  br label %236

236:                                              ; preds = %235, %152, %68
  %237 = load i32, ptr %23, align 4
  %238 = add nsw i32 %237, 1
  store i32 %238, ptr %23, align 4
  br label %55, !llvm.loop !25

239:                                              ; preds = %55
  ret void
}