; Function Attrs: nofree norecurse nosync nounwind memory(readwrite, inaccessiblemem: none) uwtable
define hidden void @Any4ByteDrawGlyphList(ptr nocapture noundef readonly %0, ptr nocapture noundef readonly %1, i32 noundef %2, i32 noundef %3, i32 %4, i32 noundef %5, i32 noundef %6, i32 noundef %7, i32 noundef %8, ptr nocapture readnone %9, ptr nocapture readnone %10) #2 {
  %12 = trunc i32 %3 to i8
  %13 = lshr i32 %3, 8
  %14 = trunc i32 %13 to i8
  %15 = lshr i32 %3, 16
  %16 = trunc i32 %15 to i8
  %17 = lshr i32 %3, 24
  %18 = trunc nuw i32 %17 to i8
  %19 = icmp sgt i32 %2, 0
  br i1 %19, label %.lr.ph, label %._crit_edge

.lr.ph:                                           ; preds = %11
  %20 = getelementptr inbounds i8, ptr %0, i64 32
  %21 = load i32, ptr %20, align 8
  %22 = getelementptr inbounds i8, ptr %0, i64 16
  %23 = sext i32 %21 to i64
  %wide.trip.count106 = zext nneg i32 %2 to i64
  br label %24

24:                                               ; preds = %.lr.ph, %.loopexit
  %indvars.iv103 = phi i64 [ 0, %.lr.ph ], [ %indvars.iv.next104, %.loopexit ]
  %25 = getelementptr inbounds %struct.ImageRef, ptr %1, i64 %indvars.iv103
  %26 = getelementptr inbounds i8, ptr %25, i64 8
  %27 = load ptr, ptr %26, align 8
  %.not = icmp eq ptr %27, null
  br i1 %.not, label %.loopexit, label %28

28:                                               ; preds = %24
  %29 = getelementptr inbounds i8, ptr %25, i64 32
  %30 = load i32, ptr %29, align 8
  %31 = getelementptr inbounds i8, ptr %25, i64 36
  %32 = load i32, ptr %31, align 4
  %33 = getelementptr inbounds i8, ptr %25, i64 24
  %34 = load i32, ptr %33, align 8
  %35 = getelementptr inbounds i8, ptr %25, i64 28
  %36 = load i32, ptr %35, align 4
  %37 = add nsw i32 %34, %30
  %38 = add nsw i32 %36, %32
  %.080 = tail call i32 @llvm.smax.i32(i32 %30, i32 %5)
  %.079 = tail call i32 @llvm.smax.i32(i32 %32, i32 %6)
  %.077 = tail call i32 @llvm.smin.i32(i32 %37, i32 %7)
  %.076 = tail call i32 @llvm.smin.i32(i32 %38, i32 %8)
  %.not97 = icmp sgt i32 %.077, %.080
  %.not98 = icmp sgt i32 %.076, %.079
  %or.cond = select i1 %.not97, i1 %.not98, i1 false
  br i1 %or.cond, label %39, label %.loopexit

39:                                               ; preds = %28
  %40 = getelementptr inbounds i8, ptr %25, i64 16
  %41 = load i32, ptr %40, align 8
  %42 = icmp slt i32 %32, %6
  %43 = icmp slt i32 %30, %5
  %44 = sub nsw i32 %5, %30
  %narrow = select i1 %43, i32 %44, i32 0
  %.082.idx = sext i32 %narrow to i64
  %.082 = getelementptr inbounds i8, ptr %27, i64 %.082.idx
  %45 = sub nsw i32 %6, %32
  %46 = mul nsw i32 %45, %41
  %narrow100 = select i1 %42, i32 %46, i32 0
  %.1.idx = sext i32 %narrow100 to i64
  %.1 = getelementptr inbounds i8, ptr %.082, i64 %.1.idx
  %47 = sub i32 %.077, %.080
  %48 = sub nsw i32 %.076, %.079
  %49 = load ptr, ptr %22, align 8
  %50 = ptrtoint ptr %49 to i64
  %51 = sext i32 %.079 to i64
  %52 = mul nsw i64 %51, %23
  %53 = sext i32 %.080 to i64
  %54 = shl nsw i64 %53, 2
  %55 = add nsw i64 %52, %54
  %56 = add nsw i64 %55, %50
  %57 = sext i32 %41 to i64
  %smax = tail call i32 @llvm.smax.i32(i32 %47, i32 1)
  %wide.trip.count = zext nneg i32 %smax to i64
  br label %58

58:                                               ; preds = %72, %39
  %.083.in = phi i64 [ %56, %39 ], [ %73, %72 ]
  %.2 = phi ptr [ %.1, %39 ], [ %74, %72 ]
  %.078 = phi i32 [ %48, %39 ], [ %75, %72 ]
  %.083 = inttoptr i64 %.083.in to ptr
  br label %59

59:                                               ; preds = %71, %58
  %indvars.iv = phi i64 [ %indvars.iv.next, %71 ], [ 0, %58 ]
  %60 = getelementptr inbounds i8, ptr %.2, i64 %indvars.iv
  %61 = load i8, ptr %60, align 1
  %.not99 = icmp eq i8 %61, 0
  br i1 %.not99, label %71, label %62

62:                                               ; preds = %59
  %63 = shl nsw i64 %indvars.iv, 2
  %64 = getelementptr inbounds i8, ptr %.083, i64 %63
  store i8 %12, ptr %64, align 1
  %65 = or disjoint i64 %63, 1
  %66 = getelementptr inbounds i8, ptr %.083, i64 %65
  store i8 %14, ptr %66, align 1
  %67 = or disjoint i64 %63, 2
  %68 = getelementptr inbounds i8, ptr %.083, i64 %67
  store i8 %16, ptr %68, align 1
  %69 = or disjoint i64 %63, 3
  %70 = getelementptr inbounds i8, ptr %.083, i64 %69
  store i8 %18, ptr %70, align 1
  br label %71

71:                                               ; preds = %59, %62
  %indvars.iv.next = add nuw nsw i64 %indvars.iv, 1
  %exitcond.not = icmp eq i64 %indvars.iv.next, %wide.trip.count
  br i1 %exitcond.not, label %72, label %59, !llvm.loop !23

72:                                               ; preds = %71
  %73 = add nsw i64 %.083.in, %23
  %74 = getelementptr inbounds i8, ptr %.2, i64 %57
  %75 = add nsw i32 %.078, -1
  %76 = icmp sgt i32 %.078, 1
  br i1 %76, label %58, label %.loopexit, !llvm.loop !24

.loopexit:                                        ; preds = %72, %28, %24
  %indvars.iv.next104 = add nuw nsw i64 %indvars.iv103, 1
  %exitcond107.not = icmp eq i64 %indvars.iv.next104, %wide.trip.count106
  br i1 %exitcond107.not, label %._crit_edge, label %24, !llvm.loop !25

._crit_edge:                                      ; preds = %.loopexit, %11
  ret void
}